target datalayout = "e-m:e-p270:32:32-p271:32:32-p272:64:64-i64:64-i128:128-f80:128-n8:16:32:64-S128"
target triple = "x86_64-pc-linux-gnu"

%struct._object = type { %union.anon, ptr }
%union.anon = type { i64 }
%struct._longobject = type { %struct._object, %struct._PyLongValue }
%struct._PyLongValue = type { i64, [1 x i32] }
%struct.zipobject = type { %struct._object, i64, ptr, ptr, i32 }

@_Py_TrueStruct = external global %struct._longobject, align 8

; Function Attrs: inlinehint nounwind uwtable
define internal ptr @_Py_TYPE(ptr noundef %0) #4 {
  %2 = alloca ptr, align 8
  store ptr %0, ptr %2, align 8, !tbaa !4
  %3 = load ptr, ptr %2, align 8, !tbaa !4
  %4 = getelementptr inbounds nuw %struct._object, ptr %3, i32 0, i32 1
  %5 = load ptr, ptr %4, align 8, !tbaa !75
  ret ptr %5
}

; Function Attrs: nounwind uwtable
define internal ptr @zip_reduce(ptr noundef %0, ptr noundef %1) #0 {
  %3 = alloca ptr, align 8
  %4 = alloca ptr, align 8
  %5 = alloca ptr, align 8
  %6 = alloca ptr, align 8
  %7 = alloca i32, align 4
  store ptr %0, ptr %4, align 8, !tbaa !4
  store ptr %1, ptr %5, align 8, !tbaa !4
  call void @llvm.lifetime.start.p0(i64 8, ptr %6) #9
  %8 = load ptr, ptr %4, align 8, !tbaa !4
  store ptr %8, ptr %6, align 8, !tbaa !9
  %9 = load ptr, ptr %6, align 8, !tbaa !9
  %10 = getelementptr inbounds nuw %struct.zipobject, ptr %9, i32 0, i32 4
  %11 = load i32, ptr %10, align 8, !tbaa !60
  %12 = icmp ne i32 %11, 0
  br i1 %12, label %13, label %20

13:                                               ; preds = %2
  %14 = load ptr, ptr %6, align 8, !tbaa !9
  %15 = call ptr @_Py_TYPE(ptr noundef %14)
  %16 = load ptr, ptr %6, align 8, !tbaa !9
  %17 = getelementptr inbounds nuw %struct.zipobject, ptr %16, i32 0, i32 2
  %18 = load ptr, ptr %17, align 8, !tbaa !56
  %19 = call ptr (i64, ...) @PyTuple_Pack(i64 noundef 3, ptr noundef %15, ptr noundef %18, ptr noundef @_Py_TrueStruct)
  store ptr %19, ptr %3, align 8
  store i32 1, ptr %7, align 4
  br label %27

20:                                               ; preds = %2
  %21 = load ptr, ptr %6, align 8, !tbaa !9
  %22 = call ptr @_Py_TYPE(ptr noundef %21)
  %23 = load ptr, ptr %6, align 8, !tbaa !9
  %24 = getelementptr inbounds nuw %struct.zipobject, ptr %23, i32 0, i32 2
  %25 = load ptr, ptr %24, align 8, !tbaa !56
  %26 = call ptr (i64, ...) @PyTuple_Pack(i64 noundef 2, ptr noundef %22, ptr noundef %25)
  store ptr %26, ptr %3, align 8
  store i32 1, ptr %7, align 4
  br label %27

27:                                               ; preds = %20, %13
  call void @llvm.lifetime.end.p0(i64 8, ptr %6) #9
  %28 = load ptr, ptr %3, align 8
  ret ptr %28
}