; Function Attrs: nounwind uwtable
define internal ptr @zip_reduce(ptr noundef readonly captures(none) %0, ptr readnone captures(none) %1) #0 {
  %3 = getelementptr inbounds nuw i8, ptr %0, i64 40
  %4 = load i32, ptr %3, align 8, !tbaa !60
  %.not = icmp eq i32 %4, 0
  %5 = getelementptr i8, ptr %0, i64 8
  %.val = load ptr, ptr %5, align 8, !tbaa !20
  %6 = getelementptr inbounds nuw i8, ptr %0, i64 24
  %7 = load ptr, ptr %6, align 8, !tbaa !56
  br i1 %.not, label %10, label %8

8:                                                ; preds = %2
  %9 = tail call ptr (i64, ...) @PyTuple_Pack(i64 noundef 3, ptr noundef %.val, ptr noundef %7, ptr noundef nonnull @_Py_TrueStruct) #9
  br label %12

10:                                               ; preds = %2
  %11 = tail call ptr (i64, ...) @PyTuple_Pack(i64 noundef 2, ptr noundef %.val, ptr noundef %7) #9
  br label %12

12:                                               ; preds = %10, %8
  %.0 = phi ptr [ %9, %8 ], [ %11, %10 ]
  ret ptr %.0
}